; ModuleID = '9/628.c'
source_filename = "9/628.c"
target datalayout = "e-m:e-p270:32:32-p271:32:32-p272:64:64-i64:64-f80:128-n8:16:32:64-S128"
target triple = "x86_64-pc-linux-gnu"

@.str = private unnamed_addr constant [3 x i8] c"%d\00", align 1
@.str.1 = private unnamed_addr constant [6 x i8] c"%s %d\00", align 1
@.str.2 = private unnamed_addr constant [4 x i8] c"%s\0A\00", align 1

; Function Attrs: noinline nounwind uwtable
define dso_local i32 @main() #0 {
  %1 = alloca i32, align 4
  %2 = alloca [10 x i8], align 1
  %3 = alloca [100 x [10 x i8]], align 16
  %4 = alloca i32, align 4
  %5 = alloca i32, align 4
  %6 = alloca i32, align 4
  %7 = alloca i32, align 4
  %8 = alloca [100 x i32], align 16
  %9 = alloca [100 x i32], align 16
  %10 = alloca [100 x i32], align 16
  %11 = alloca i32, align 4
  %12 = alloca i32, align 4
  %13 = alloca i32, align 4
  store i32 0, i32* %1, align 4
  store i32 1, i32* %11, align 4
  %14 = call i32 (i8*, ...) @__isoc99_scanf(i8* getelementptr inbounds ([3 x i8], [3 x i8]* @.str, i64 0, i64 0), i32* %6)
  store i32 0, i32* %4, align 4
  br label %15

15:                                               ; preds = %32, %0
  %16 = load i32, i32* %4, align 4
  %17 = load i32, i32* %6, align 4
  %18 = icmp slt i32 %16, %17
  br i1 %18, label %19, label %35

19:                                               ; preds = %15
  %20 = load i32, i32* %4, align 4
  %21 = load i32, i32* %4, align 4
  %22 = sext i32 %21 to i64
  %23 = getelementptr inbounds [100 x i32], [100 x i32]* %9, i64 0, i64 %22
  store i32 %20, i32* %23, align 4
  %24 = load i32, i32* %4, align 4
  %25 = sext i32 %24 to i64
  %26 = getelementptr inbounds [100 x [10 x i8]], [100 x [10 x i8]]* %3, i64 0, i64 %25
  %27 = getelementptr inbounds [10 x i8], [10 x i8]* %26, i64 0, i64 0
  %28 = load i32, i32* %4, align 4
  %29 = sext i32 %28 to i64
  %30 = getelementptr inbounds [100 x i32], [100 x i32]* %8, i64 0, i64 %29
  %31 = call i32 (i8*, ...) @__isoc99_scanf(i8* getelementptr inbounds ([6 x i8], [6 x i8]* @.str.1, i64 0, i64 0), i8* %27, i32* %30)
  br label %32

32:                                               ; preds = %19
  %33 = load i32, i32* %4, align 4
  %34 = add nsw i32 %33, 1
  store i32 %34, i32* %4, align 4
  br label %15

35:                                               ; preds = %15
  store i32 0, i32* %5, align 4
  br label %36

36:                                               ; preds = %122, %35
  %37 = load i32, i32* %5, align 4
  %38 = load i32, i32* %6, align 4
  %39 = icmp slt i32 %37, %38
  br i1 %39, label %40, label %125

40:                                               ; preds = %36
  store i32 0, i32* %4, align 4
  br label %41

41:                                               ; preds = %118, %40
  %42 = load i32, i32* %4, align 4
  %43 = load i32, i32* %6, align 4
  %44 = load i32, i32* %5, align 4
  %45 = sub nsw i32 %43, %44
  %46 = sub nsw i32 %45, 1
  %47 = icmp slt i32 %42, %46
  br i1 %47, label %48, label %121

48:                                               ; preds = %41
  %49 = load i32, i32* %4, align 4
  %50 = sext i32 %49 to i64
  %51 = getelementptr inbounds [100 x i32], [100 x i32]* %8, i64 0, i64 %50
  %52 = load i32, i32* %51, align 4
  %53 = load i32, i32* %4, align 4
  %54 = add nsw i32 %53, 1
  %55 = sext i32 %54 to i64
  %56 = getelementptr inbounds [100 x i32], [100 x i32]* %8, i64 0, i64 %55
  %57 = load i32, i32* %56, align 4
  %58 = icmp slt i32 %52, %57
  br i1 %58, label %59, label %117

59:                                               ; preds = %48
  %60 = getelementptr inbounds [10 x i8], [10 x i8]* %2, i64 0, i64 0
  %61 = load i32, i32* %4, align 4
  %62 = sext i32 %61 to i64
  %63 = getelementptr inbounds [100 x [10 x i8]], [100 x [10 x i8]]* %3, i64 0, i64 %62
  %64 = getelementptr inbounds [10 x i8], [10 x i8]* %63, i64 0, i64 0
  %65 = call i8* @strcpy(i8* %60, i8* %64) #3
  %66 = load i32, i32* %4, align 4
  %67 = sext i32 %66 to i64
  %68 = getelementptr inbounds [100 x i32], [100 x i32]* %8, i64 0, i64 %67
  %69 = load i32, i32* %68, align 4
  store i32 %69, i32* %12, align 4
  %70 = load i32, i32* %4, align 4
  %71 = sext i32 %70 to i64
  %72 = getelementptr inbounds [100 x i32], [100 x i32]* %9, i64 0, i64 %71
  %73 = load i32, i32* %72, align 4
  store i32 %73, i32* %13, align 4
  %74 = load i32, i32* %4, align 4
  %75 = sext i32 %74 to i64
  %76 = getelementptr inbounds [100 x [10 x i8]], [100 x [10 x i8]]* %3, i64 0, i64 %75
  %77 = getelementptr inbounds [10 x i8], [10 x i8]* %76, i64 0, i64 0
  %78 = load i32, i32* %4, align 4
  %79 = add nsw i32 %78, 1
  %80 = sext i32 %79 to i64
  %81 = getelementptr inbounds [100 x [10 x i8]], [100 x [10 x i8]]* %3, i64 0, i64 %80
  %82 = getelementptr inbounds [10 x i8], [10 x i8]* %81, i64 0, i64 0
  %83 = call i8* @strcpy(i8* %77, i8* %82) #3
  %84 = load i32, i32* %4, align 4
  %85 = add nsw i32 %84, 1
  %86 = sext i32 %85 to i64
  %87 = getelementptr inbounds [100 x i32], [100 x i32]* %8, i64 0, i64 %86
  %88 = load i32, i32* %87, align 4
  %89 = load i32, i32* %4, align 4
  %90 = sext i32 %89 to i64
  %91 = getelementptr inbounds [100 x i32], [100 x i32]* %8, i64 0, i64 %90
  store i32 %88, i32* %91, align 4
  %92 = load i32, i32* %4, align 4
  %93 = add nsw i32 %92, 1
  %94 = sext i32 %93 to i64
  %95 = getelementptr inbounds [100 x i32], [100 x i32]* %9, i64 0, i64 %94
  %96 = load i32, i32* %95, align 4
  %97 = load i32, i32* %4, align 4
  %98 = sext i32 %97 to i64
  %99 = getelementptr inbounds [100 x i32], [100 x i32]* %9, i64 0, i64 %98
  store i32 %96, i32* %99, align 4
  %100 = load i32, i32* %12, align 4
  %101 = load i32, i32* %4, align 4
  %102 = add nsw i32 %101, 1
  %103 = sext i32 %102 to i64
  %104 = getelementptr inbounds [100 x i32], [100 x i32]* %8, i64 0, i64 %103
  store i32 %100, i32* %104, align 4
  %105 = load i32, i32* %4, align 4
  %106 = add nsw i32 %105, 1
  %107 = sext i32 %106 to i64
  %108 = getelementptr inbounds [100 x [10 x i8]], [100 x [10 x i8]]* %3, i64 0, i64 %107
  %109 = getelementptr inbounds [10 x i8], [10 x i8]* %108, i64 0, i64 0
  %110 = getelementptr inbounds [10 x i8], [10 x i8]* %2, i64 0, i64 0
  %111 = call i8* @strcpy(i8* %109, i8* %110) #3
  %112 = load i32, i32* %13, align 4
  %113 = load i32, i32* %4, align 4
  %114 = add nsw i32 %113, 1
  %115 = sext i32 %114 to i64
  %116 = getelementptr inbounds [100 x i32], [100 x i32]* %9, i64 0, i64 %115
  store i32 %112, i32* %116, align 4
  br label %117

117:                                              ; preds = %59, %48
  br label %118

118:                                              ; preds = %117
  %119 = load i32, i32* %4, align 4
  %120 = add nsw i32 %119, 1
  store i32 %120, i32* %4, align 4
  br label %41

121:                                              ; preds = %41
  br label %122

122:                                              ; preds = %121
  %123 = load i32, i32* %5, align 4
  %124 = add nsw i32 %123, 1
  store i32 %124, i32* %5, align 4
  br label %36

125:                                              ; preds = %36
  store i32 0, i32* %4, align 4
  br label %126

126:                                              ; preds = %143, %125
  %127 = load i32, i32* %4, align 4
  %128 = load i32, i32* %6, align 4
  %129 = icmp slt i32 %127, %128
  br i1 %129, label %130, label %146

130:                                              ; preds = %126
  %131 = load i32, i32* %4, align 4
  %132 = sext i32 %131 to i64
  %133 = getelementptr inbounds [100 x i32], [100 x i32]* %8, i64 0, i64 %132
  %134 = load i32, i32* %133, align 4
  %135 = icmp sge i32 %134, 60
  br i1 %135, label %136, label %142

136:                                              ; preds = %130
  %137 = load i32, i32* %4, align 4
  %138 = sext i32 %137 to i64
  %139 = getelementptr inbounds [100 x [10 x i8]], [100 x [10 x i8]]* %3, i64 0, i64 %138
  %140 = getelementptr inbounds [10 x i8], [10 x i8]* %139, i64 0, i64 0
  %141 = call i32 (i8*, ...) @printf(i8* getelementptr inbounds ([4 x i8], [4 x i8]* @.str.2, i64 0, i64 0), i8* %140)
  br label %142

142:                                              ; preds = %136, %130
  br label %143

143:                                              ; preds = %142
  %144 = load i32, i32* %4, align 4
  %145 = add nsw i32 %144, 1
  store i32 %145, i32* %4, align 4
  br label %126

146:                                              ; preds = %126
  store i32 0, i32* %5, align 4
  br label %147

147:                                              ; preds = %233, %146
  %148 = load i32, i32* %5, align 4
  %149 = load i32, i32* %6, align 4
  %150 = icmp slt i32 %148, %149
  br i1 %150, label %151, label %236

151:                                              ; preds = %147
  store i32 0, i32* %4, align 4
  br label %152

152:                                              ; preds = %229, %151
  %153 = load i32, i32* %4, align 4
  %154 = load i32, i32* %6, align 4
  %155 = load i32, i32* %5, align 4
  %156 = sub nsw i32 %154, %155
  %157 = sub nsw i32 %156, 1
  %158 = icmp slt i32 %153, %157
  br i1 %158, label %159, label %232

159:                                              ; preds = %152
  %160 = load i32, i32* %4, align 4
  %161 = sext i32 %160 to i64
  %162 = getelementptr inbounds [100 x i32], [100 x i32]* %9, i64 0, i64 %161
  %163 = load i32, i32* %162, align 4
  %164 = load i32, i32* %4, align 4
  %165 = add nsw i32 %164, 1
  %166 = sext i32 %165 to i64
  %167 = getelementptr inbounds [100 x i32], [100 x i32]* %9, i64 0, i64 %166
  %168 = load i32, i32* %167, align 4
  %169 = icmp sgt i32 %163, %168
  br i1 %169, label %170, label %228

170:                                              ; preds = %159
  %171 = getelementptr inbounds [10 x i8], [10 x i8]* %2, i64 0, i64 0
  %172 = load i32, i32* %4, align 4
  %173 = sext i32 %172 to i64
  %174 = getelementptr inbounds [100 x [10 x i8]], [100 x [10 x i8]]* %3, i64 0, i64 %173
  %175 = getelementptr inbounds [10 x i8], [10 x i8]* %174, i64 0, i64 0
  %176 = call i8* @strcpy(i8* %171, i8* %175) #3
  %177 = load i32, i32* %4, align 4
  %178 = sext i32 %177 to i64
  %179 = getelementptr inbounds [100 x i32], [100 x i32]* %8, i64 0, i64 %178
  %180 = load i32, i32* %179, align 4
  store i32 %180, i32* %12, align 4
  %181 = load i32, i32* %4, align 4
  %182 = sext i32 %181 to i64
  %183 = getelementptr inbounds [100 x i32], [100 x i32]* %9, i64 0, i64 %182
  %184 = load i32, i32* %183, align 4
  store i32 %184, i32* %13, align 4
  %185 = load i32, i32* %4, align 4
  %186 = sext i32 %185 to i64
  %187 = getelementptr inbounds [100 x [10 x i8]], [100 x [10 x i8]]* %3, i64 0, i64 %186
  %188 = getelementptr inbounds [10 x i8], [10 x i8]* %187, i64 0, i64 0
  %189 = load i32, i32* %4, align 4
  %190 = add nsw i32 %189, 1
  %191 = sext i32 %190 to i64
  %192 = getelementptr inbounds [100 x [10 x i8]], [100 x [10 x i8]]* %3, i64 0, i64 %191
  %193 = getelementptr inbounds [10 x i8], [10 x i8]* %192, i64 0, i64 0
  %194 = call i8* @strcpy(i8* %188, i8* %193) #3
  %195 = load i32, i32* %4, align 4
  %196 = add nsw i32 %195, 1
  %197 = sext i32 %196 to i64
  %198 = getelementptr inbounds [100 x i32], [100 x i32]* %8, i64 0, i64 %197
  %199 = load i32, i32* %198, align 4
  %200 = load i32, i32* %4, align 4
  %201 = sext i32 %200 to i64
  %202 = getelementptr inbounds [100 x i32], [100 x i32]* %8, i64 0, i64 %201
  store i32 %199, i32* %202, align 4
  %203 = load i32, i32* %4, align 4
  %204 = add nsw i32 %203, 1
  %205 = sext i32 %204 to i64
  %206 = getelementptr inbounds [100 x i32], [100 x i32]* %9, i64 0, i64 %205
  %207 = load i32, i32* %206, align 4
  %208 = load i32, i32* %4, align 4
  %209 = sext i32 %208 to i64
  %210 = getelementptr inbounds [100 x i32], [100 x i32]* %9, i64 0, i64 %209
  store i32 %207, i32* %210, align 4
  %211 = load i32, i32* %12, align 4
  %212 = load i32, i32* %4, align 4
  %213 = add nsw i32 %212, 1
  %214 = sext i32 %213 to i64
  %215 = getelementptr inbounds [100 x i32], [100 x i32]* %8, i64 0, i64 %214
  store i32 %211, i32* %215, align 4
  %216 = load i32, i32* %4, align 4
  %217 = add nsw i32 %216, 1
  %218 = sext i32 %217 to i64
  %219 = getelementptr inbounds [100 x [10 x i8]], [100 x [10 x i8]]* %3, i64 0, i64 %218
  %220 = getelementptr inbounds [10 x i8], [10 x i8]* %219, i64 0, i64 0
  %221 = getelementptr inbounds [10 x i8], [10 x i8]* %2, i64 0, i64 0
  %222 = call i8* @strcpy(i8* %220, i8* %221) #3
  %223 = load i32, i32* %13, align 4
  %224 = load i32, i32* %4, align 4
  %225 = add nsw i32 %224, 1
  %226 = sext i32 %225 to i64
  %227 = getelementptr inbounds [100 x i32], [100 x i32]* %9, i64 0, i64 %226
  store i32 %223, i32* %227, align 4
  br label %228

228:                                              ; preds = %170, %159
  br label %229

229:                                              ; preds = %228
  %230 = load i32, i32* %4, align 4
  %231 = add nsw i32 %230, 1
  store i32 %231, i32* %4, align 4
  br label %152

232:                                              ; preds = %152
  br label %233

233:                                              ; preds = %232
  %234 = load i32, i32* %5, align 4
  %235 = add nsw i32 %234, 1
  store i32 %235, i32* %5, align 4
  br label %147

236:                                              ; preds = %147
  store i32 0, i32* %4, align 4
  br label %237

237:                                              ; preds = %254, %236
  %238 = load i32, i32* %4, align 4
  %239 = load i32, i32* %6, align 4
  %240 = icmp slt i32 %238, %239
  br i1 %240, label %241, label %257

241:                                              ; preds = %237
  %242 = load i32, i32* %4, align 4
  %243 = sext i32 %242 to i64
  %244 = getelementptr inbounds [100 x i32], [100 x i32]* %8, i64 0, i64 %243
  %245 = load i32, i32* %244, align 4
  %246 = icmp slt i32 %245, 60
  br i1 %246, label %247, label %253

247:                                              ; preds = %241
  %248 = load i32, i32* %4, align 4
  %249 = sext i32 %248 to i64
  %250 = getelementptr inbounds [100 x [10 x i8]], [100 x [10 x i8]]* %3, i64 0, i64 %249
  %251 = getelementptr inbounds [10 x i8], [10 x i8]* %250, i64 0, i64 0
  %252 = call i32 (i8*, ...) @printf(i8* getelementptr inbounds ([4 x i8], [4 x i8]* @.str.2, i64 0, i64 0), i8* %251)
  br label %253

253:                                              ; preds = %247, %241
  br label %254

254:                                              ; preds = %253
  %255 = load i32, i32* %4, align 4
  %256 = add nsw i32 %255, 1
  store i32 %256, i32* %4, align 4
  br label %237

257:                                              ; preds = %237
  %258 = load i32, i32* %1, align 4
  ret i32 %258
}

declare dso_local i32 @__isoc99_scanf(i8*, ...) #1

; Function Attrs: nounwind
declare dso_local i8* @strcpy(i8*, i8*) #2

declare dso_local i32 @printf(i8*, ...) #1


!llvm.module.flags = !{!0}
!llvm.ident = !{!1}

!0 = !{i32 1, !"wchar_size", i32 4}
!1 = !{!"clang version 10.0.0-4ubuntu1 "}
